target datalayout = "e-m:e-p270:32:32-p271:32:32-p272:64:64-i64:64-i128:128-f80:128-n8:16:32:64-S128"
target triple = "x86_64-unknown-linux-gnu"

%struct.QTailQLink = type { ptr, ptr }
%struct.BlockDriverState = type { i32, i8, i8, i8, i8, i8, ptr, ptr, ptr, %struct.anon.0, i8, [4096 x i8], [4096 x i8], [4096 x i8], [16 x i8], ptr, [4096 x i8], %struct.BlockLimits, i32, i32, i32, i32, [32 x i8], %union.anon, %union.anon.1, %union.anon.2, i32, [16 x %struct.anon.3], ptr, %struct.anon.4, ptr, ptr, %struct.anon.5, ptr, ptr, i32, ptr, i64, i64, %struct.QemuMutex, %struct.anon.6, %struct.Stat64, i32, i32, i32, i32, i32, i32, %struct.QemuMutex, %struct.anon.7, %struct.CoQueue, i8, i32, i8, %struct.CoMutex, ptr, ptr }
%struct.anon.0 = type { ptr }
%struct.BlockLimits = type { i32, i64, i32, i64, i32, i32, i32, i64, i32, i64, i64, i32, i8, i32, i32, i32, i32, i32, i32, i32 }
%union.anon = type { %struct.QTailQLink }
%union.anon.1 = type { %struct.QTailQLink }
%union.anon.2 = type { %struct.QTailQLink }
%struct.anon.3 = type { ptr }
%struct.anon.4 = type { ptr }
%struct.anon.5 = type { ptr }
%struct.anon.6 = type { ptr }
%struct.Stat64 = type { i64 }
%struct.QemuMutex = type { %union.pthread_mutex_t, i8 }
%union.pthread_mutex_t = type { %struct.__pthread_mutex_s }
%struct.__pthread_mutex_s = type { i32, i32, i32, i32, i32, i16, i16, %struct.__pthread_internal_list }
%struct.__pthread_internal_list = type { ptr, ptr }
%struct.anon.7 = type { ptr }
%struct.CoQueue = type { %struct.anon.8 }
%struct.anon.8 = type { ptr, ptr }
%struct.CoMutex = type { i32, ptr, %struct.anon.9, %struct.anon.9, i32, i32, ptr }
%struct.anon.9 = type { ptr }
%struct.BDRVReplicationState = type { i32, i32, ptr, ptr, ptr, ptr, ptr, ptr, ptr, i8, i8, i32 }
%struct.QEMUIOVector = type { ptr, i32, %union.anon.18 }
%union.anon.18 = type { %struct.anon.19 }
%struct.anon.19 = type { i32, %struct.iovec }
%struct.iovec = type { ptr, i64 }
%struct.BdrvChild = type { ptr, ptr, ptr, i32, ptr, i64, i64, i8, i8, %struct.anon.12, %struct.anon.13 }
%struct.anon.12 = type { ptr, ptr }
%struct.anon.13 = type { ptr, ptr }

@.str.4 = private unnamed_addr constant [28 x i8] c"../qemu/block/replication.c\00", align 1
@.str.32 = private unnamed_addr constant [41 x i8] c"QEMU_IS_ALIGNED(count, BDRV_SECTOR_SIZE)\00", align 1
@__PRETTY_FUNCTION__.replication_co_writev = private unnamed_addr constant [81 x i8] c"int replication_co_writev(BlockDriverState *, int64_t, int, QEMUIOVector *, int)\00", align 1

; Function Attrs: nounwind sspstrong uwtable
define internal i32 @replication_return_value(ptr noundef %s, i32 noundef %ret) #0 {
entry:
  %retval = alloca i32, align 4
  %s.addr = alloca ptr, align 8
  %ret.addr = alloca i32, align 4
  store ptr %s, ptr %s.addr, align 8
  store i32 %ret, ptr %ret.addr, align 4
  %0 = load ptr, ptr %s.addr, align 8
  %mode = getelementptr inbounds %struct.BDRVReplicationState, ptr %0, i32 0, i32 0
  %1 = load i32, ptr %mode, align 8
  %cmp = icmp eq i32 %1, 1
  br i1 %cmp, label %if.then, label %if.end

if.then:                                          ; preds = %entry
  %2 = load i32, ptr %ret.addr, align 4
  store i32 %2, ptr %retval, align 4
  br label %return

if.end:                                           ; preds = %entry
  %3 = load i32, ptr %ret.addr, align 4
  %cmp1 = icmp slt i32 %3, 0
  br i1 %cmp1, label %if.then2, label %if.end3

if.then2:                                         ; preds = %if.end
  %4 = load i32, ptr %ret.addr, align 4
  %5 = load ptr, ptr %s.addr, align 8
  %error = getelementptr inbounds %struct.BDRVReplicationState, ptr %5, i32 0, i32 11
  store i32 %4, ptr %error, align 4
  store i32 0, ptr %ret.addr, align 4
  br label %if.end3

if.end3:                                          ; preds = %if.then2, %if.end
  %6 = load i32, ptr %ret.addr, align 4
  store i32 %6, ptr %retval, align 4
  br label %return

return:                                           ; preds = %if.end3, %if.then
  %7 = load i32, ptr %retval, align 4
  ret i32 %7
}

; Function Attrs: nounwind sspstrong uwtable
define internal i32 @replication_get_io_status(ptr noundef %s) #0 {
entry:
  %retval = alloca i32, align 4
  %s.addr = alloca ptr, align 8
  store ptr %s, ptr %s.addr, align 8
  %0 = load ptr, ptr %s.addr, align 8
  %stage = getelementptr inbounds %struct.BDRVReplicationState, ptr %0, i32 0, i32 1
  %1 = load i32, ptr %stage, align 4
  switch i32 %1, label %sw.default [
    i32 0, label %sw.bb
    i32 1, label %sw.bb1
    i32 2, label %sw.bb2
    i32 3, label %sw.bb3
    i32 4, label %sw.bb7
  ]

sw.bb:                                            ; preds = %entry
  store i32 -5, ptr %retval, align 4
  br label %return

sw.bb1:                                           ; preds = %entry
  store i32 0, ptr %retval, align 4
  br label %return

sw.bb2:                                           ; preds = %entry
  %2 = load ptr, ptr %s.addr, align 8
  %mode = getelementptr inbounds %struct.BDRVReplicationState, ptr %2, i32 0, i32 0
  %3 = load i32, ptr %mode, align 8
  %cmp = icmp eq i32 %3, 0
  %cond = select i1 %cmp, i32 -5, i32 0
  store i32 %cond, ptr %retval, align 4
  br label %return

sw.bb3:                                           ; preds = %entry
  %4 = load ptr, ptr %s.addr, align 8
  %mode4 = getelementptr inbounds %struct.BDRVReplicationState, ptr %4, i32 0, i32 0
  %5 = load i32, ptr %mode4, align 8
  %cmp5 = icmp eq i32 %5, 0
  %cond6 = select i1 %cmp5, i32 -5, i32 1
  store i32 %cond6, ptr %retval, align 4
  br label %return

sw.bb7:                                           ; preds = %entry
  %6 = load ptr, ptr %s.addr, align 8
  %mode8 = getelementptr inbounds %struct.BDRVReplicationState, ptr %6, i32 0, i32 0
  %7 = load i32, ptr %mode8, align 8
  %cmp9 = icmp eq i32 %7, 0
  %cond10 = select i1 %cmp9, i32 -5, i32 0
  store i32 %cond10, ptr %retval, align 4
  br label %return

sw.default:                                       ; preds = %entry
  call void @abort() #6
  unreachable

return:                                           ; preds = %sw.bb7, %sw.bb3, %sw.bb2, %sw.bb1, %sw.bb
  %8 = load i32, ptr %retval, align 4
  ret i32 %8
}

; Function Attrs: nounwind sspstrong uwtable
define internal i32 @replication_co_writev(ptr noundef %bs, i64 noundef %sector_num, i32 noundef %remaining_sectors, ptr noundef %qiov, i32 noundef %flags) #0 {
entry:
  %retval = alloca i32, align 4
  %bs.addr = alloca ptr, align 8
  %sector_num.addr = alloca i64, align 8
  %remaining_sectors.addr = alloca i32, align 4
  %qiov.addr = alloca ptr, align 8
  %flags.addr = alloca i32, align 4
  %s = alloca ptr, align 8
  %hd_qiov = alloca %struct.QEMUIOVector, align 8
  %bytes_done = alloca i64, align 8
  %top = alloca ptr, align 8
  %base = alloca ptr, align 8
  %target = alloca ptr, align 8
  %ret = alloca i32, align 4
  %n = alloca i64, align 8
  %count = alloca i64, align 8
  store ptr %bs, ptr %bs.addr, align 8
  store i64 %sector_num, ptr %sector_num.addr, align 8
  store i32 %remaining_sectors, ptr %remaining_sectors.addr, align 4
  store ptr %qiov, ptr %qiov.addr, align 8
  store i32 %flags, ptr %flags.addr, align 4
  %0 = load ptr, ptr %bs.addr, align 8
  %opaque = getelementptr inbounds %struct.BlockDriverState, ptr %0, i32 0, i32 7
  %1 = load ptr, ptr %opaque, align 8
  store ptr %1, ptr %s, align 8
  store i64 0, ptr %bytes_done, align 8
  %2 = load ptr, ptr %bs.addr, align 8
  %file = getelementptr inbounds %struct.BlockDriverState, ptr %2, i32 0, i32 31
  %3 = load ptr, ptr %file, align 8
  store ptr %3, ptr %top, align 8
  %4 = load ptr, ptr %s, align 8
  %secondary_disk = getelementptr inbounds %struct.BDRVReplicationState, ptr %4, i32 0, i32 4
  %5 = load ptr, ptr %secondary_disk, align 8
  store ptr %5, ptr %base, align 8
  %6 = load ptr, ptr %s, align 8
  %call = call i32 @replication_get_io_status(ptr noundef %6)
  store i32 %call, ptr %ret, align 4
  %7 = load i32, ptr %ret, align 4
  %cmp = icmp slt i32 %7, 0
  br i1 %cmp, label %if.then, label %if.end

if.then:                                          ; preds = %entry
  br label %out

if.end:                                           ; preds = %entry
  %8 = load i32, ptr %ret, align 4
  %cmp1 = icmp eq i32 %8, 0
  br i1 %cmp1, label %if.then2, label %if.end6

if.then2:                                         ; preds = %if.end
  %9 = load ptr, ptr %top, align 8
  %10 = load i64, ptr %sector_num.addr, align 8
  %mul = mul i64 %10, 512
  %11 = load i32, ptr %remaining_sectors.addr, align 4
  %conv = sext i32 %11 to i64
  %mul3 = mul i64 %conv, 512
  %12 = load ptr, ptr %qiov.addr, align 8
  %call4 = call i32 @bdrv_co_pwritev(ptr noundef %9, i64 noundef %mul, i64 noundef %mul3, ptr noundef %12, i32 noundef 0)
  store i32 %call4, ptr %ret, align 4
  %13 = load ptr, ptr %s, align 8
  %14 = load i32, ptr %ret, align 4
  %call5 = call i32 @replication_return_value(ptr noundef %13, i32 noundef %14)
  store i32 %call5, ptr %retval, align 4
  br label %return

if.end6:                                          ; preds = %if.end
  %15 = load ptr, ptr %qiov.addr, align 8
  %niov = getelementptr inbounds %struct.QEMUIOVector, ptr %15, i32 0, i32 1
  %16 = load i32, ptr %niov, align 8
  call void @qemu_iovec_init(ptr noundef %hd_qiov, i32 noundef %16)
  br label %while.cond

while.cond:                                       ; preds = %if.end29, %if.end6
  %17 = load i32, ptr %remaining_sectors.addr, align 4
  %cmp7 = icmp sgt i32 %17, 0
  br i1 %cmp7, label %while.body, label %while.end

while.body:                                       ; preds = %while.cond
  %18 = load ptr, ptr %top, align 8
  %bs9 = getelementptr inbounds %struct.BdrvChild, ptr %18, i32 0, i32 0
  %19 = load ptr, ptr %bs9, align 8
  %20 = load ptr, ptr %base, align 8
  %bs10 = getelementptr inbounds %struct.BdrvChild, ptr %20, i32 0, i32 0
  %21 = load ptr, ptr %bs10, align 8
  %22 = load i64, ptr %sector_num.addr, align 8
  %mul11 = mul i64 %22, 512
  %23 = load i32, ptr %remaining_sectors.addr, align 4
  %conv12 = sext i32 %23 to i64
  %mul13 = mul i64 %conv12, 512
  %call14 = call i32 @bdrv_co_is_allocated_above(ptr noundef %19, ptr noundef %21, i1 noundef zeroext false, i64 noundef %mul11, i64 noundef %mul13, ptr noundef %count)
  store i32 %call14, ptr %ret, align 4
  %24 = load i32, ptr %ret, align 4
  %cmp15 = icmp slt i32 %24, 0
  br i1 %cmp15, label %if.then17, label %if.end18

if.then17:                                        ; preds = %while.body
  br label %out1

if.end18:                                         ; preds = %while.body
  %25 = load i64, ptr %count, align 8
  %rem = urem i64 %25, 512
  %cmp19 = icmp eq i64 %rem, 0
  br i1 %cmp19, label %if.then21, label %if.else

if.then21:                                        ; preds = %if.end18
  br label %if.end22

if.else:                                          ; preds = %if.end18
  call void @__assert_fail(ptr noundef @.str.32, ptr noundef @.str.4, i32 noundef 287, ptr noundef @__PRETTY_FUNCTION__.replication_co_writev) #6
  unreachable

if.end22:                                         ; preds = %if.then21
  %26 = load i64, ptr %count, align 8
  %shr = ashr i64 %26, 9
  store i64 %shr, ptr %n, align 8
  call void @qemu_iovec_reset(ptr noundef %hd_qiov)
  %27 = load ptr, ptr %qiov.addr, align 8
  %28 = load i64, ptr %bytes_done, align 8
  %29 = load i64, ptr %count, align 8
  call void @qemu_iovec_concat(ptr noundef %hd_qiov, ptr noundef %27, i64 noundef %28, i64 noundef %29)
  %30 = load i32, ptr %ret, align 4
  %tobool = icmp ne i32 %30, 0
  br i1 %tobool, label %cond.true, label %cond.false

cond.true:                                        ; preds = %if.end22
  %31 = load ptr, ptr %top, align 8
  br label %cond.end

cond.false:                                       ; preds = %if.end22
  %32 = load ptr, ptr %base, align 8
  br label %cond.end

cond.end:                                         ; preds = %cond.false, %cond.true
  %cond = phi ptr [ %31, %cond.true ], [ %32, %cond.false ]
  store ptr %cond, ptr %target, align 8
  %33 = load ptr, ptr %target, align 8
  %34 = load i64, ptr %sector_num.addr, align 8
  %mul23 = mul i64 %34, 512
  %35 = load i64, ptr %n, align 8
  %mul24 = mul i64 %35, 512
  %call25 = call i32 @bdrv_co_pwritev(ptr noundef %33, i64 noundef %mul23, i64 noundef %mul24, ptr noundef %hd_qiov, i32 noundef 0)
  store i32 %call25, ptr %ret, align 4
  %36 = load i32, ptr %ret, align 4
  %cmp26 = icmp slt i32 %36, 0
  br i1 %cmp26, label %if.then28, label %if.end29

if.then28:                                        ; preds = %cond.end
  br label %out1

if.end29:                                         ; preds = %cond.end
  %37 = load i64, ptr %n, align 8
  %38 = load i32, ptr %remaining_sectors.addr, align 4
  %conv30 = sext i32 %38 to i64
  %sub = sub i64 %conv30, %37
  %conv31 = trunc i64 %sub to i32
  store i32 %conv31, ptr %remaining_sectors.addr, align 4
  %39 = load i64, ptr %n, align 8
  %40 = load i64, ptr %sector_num.addr, align 8
  %add = add i64 %40, %39
  store i64 %add, ptr %sector_num.addr, align 8
  %41 = load i64, ptr %count, align 8
  %42 = load i64, ptr %bytes_done, align 8
  %add32 = add i64 %42, %41
  store i64 %add32, ptr %bytes_done, align 8
  br label %while.cond, !llvm.loop !5

while.end:                                        ; preds = %while.cond
  br label %out1

out1:                                             ; preds = %while.end, %if.then28, %if.then17
  call void @qemu_iovec_destroy(ptr noundef %hd_qiov)
  br label %out

out:                                              ; preds = %out1, %if.then
  %43 = load i32, ptr %ret, align 4
  store i32 %43, ptr %retval, align 4
  br label %return

return:                                           ; preds = %out, %if.then2
  %44 = load i32, ptr %retval, align 4
  ret i32 %44
}