; Function Attrs: nounwind sspstrong uwtable
define internal i32 @replication_co_writev(ptr noundef readonly captures(none) %bs, i64 noundef %sector_num, i32 noundef %remaining_sectors, ptr noundef %qiov, i32 %flags) #0 {
entry:
  %hd_qiov = alloca %struct.QEMUIOVector, align 8
  %count = alloca i64, align 8
  %opaque = getelementptr inbounds nuw i8, ptr %bs, i64 24
  %0 = load ptr, ptr %opaque, align 8
  %file = getelementptr inbounds nuw i8, ptr %bs, i64 16840
  %1 = load ptr, ptr %file, align 8
  %secondary_disk = getelementptr inbounds nuw i8, ptr %0, i64 24
  %2 = load ptr, ptr %secondary_disk, align 8
  %stage.i = getelementptr inbounds nuw i8, ptr %0, i64 4
  %3 = load i32, ptr %stage.i, align 4
  switch i32 %3, label %sw.default.i [
    i32 0, label %return
    i32 1, label %if.then2
    i32 2, label %sw.bb2.i
    i32 3, label %sw.bb3.i
    i32 4, label %sw.bb7.i
  ]

sw.bb2.i:                                         ; preds = %entry
  %4 = load i32, ptr %0, align 8
  %cmp.i = icmp eq i32 %4, 0
  br i1 %cmp.i, label %return, label %if.then2

sw.bb3.i:                                         ; preds = %entry
  %5 = load i32, ptr %0, align 8
  %cmp5.i = icmp eq i32 %5, 0
  br i1 %cmp5.i, label %return, label %if.end6

sw.bb7.i:                                         ; preds = %entry
  %6 = load i32, ptr %0, align 8
  %cmp9.i = icmp eq i32 %6, 0
  br i1 %cmp9.i, label %return, label %if.then2

sw.default.i:                                     ; preds = %entry
  tail call void @abort() #10
  unreachable

if.then2:                                         ; preds = %entry, %sw.bb7.i, %sw.bb2.i
  %mul = shl i64 %sector_num, 9
  %conv = sext i32 %remaining_sectors to i64
  %mul3 = shl nsw i64 %conv, 9
  %call4 = tail call i32 @bdrv_co_pwritev(ptr noundef %1, i64 noundef %mul, i64 noundef %mul3, ptr noundef %qiov, i32 noundef 0) #8
  %7 = load i32, ptr %0, align 8
  %cmp.i24 = icmp ne i32 %7, 1
  %cmp1.i = icmp slt i32 %call4, 0
  %or.cond.i = and i1 %cmp1.i, %cmp.i24
  br i1 %or.cond.i, label %if.then2.i, label %return

if.then2.i:                                       ; preds = %if.then2
  %error.i = getelementptr inbounds nuw i8, ptr %0, i64 68
  store i32 %call4, ptr %error.i, align 4
  br label %return

if.end6:                                          ; preds = %sw.bb3.i
  %niov = getelementptr inbounds nuw i8, ptr %qiov, i64 8
  %8 = load i32, ptr %niov, align 8
  call void @qemu_iovec_init(ptr noundef nonnull %hd_qiov, i32 noundef %8) #8
  %cmp732 = icmp sgt i32 %remaining_sectors, 0
  br i1 %cmp732, label %while.body, label %out1

while.body:                                       ; preds = %if.end6, %if.end29
  %sector_num.addr.035 = phi i64 [ %add, %if.end29 ], [ %sector_num, %if.end6 ]
  %remaining_sectors.addr.034 = phi i32 [ %conv31, %if.end29 ], [ %remaining_sectors, %if.end6 ]
  %bytes_done.033 = phi i64 [ %add32, %if.end29 ], [ 0, %if.end6 ]
  %9 = load ptr, ptr %1, align 8
  %10 = load ptr, ptr %2, align 8
  %mul11 = shl i64 %sector_num.addr.035, 9
  %conv12 = zext nneg i32 %remaining_sectors.addr.034 to i64
  %mul13 = shl nuw nsw i64 %conv12, 9
  %call14 = call i32 @bdrv_co_is_allocated_above(ptr noundef %9, ptr noundef %10, i1 noundef zeroext false, i64 noundef %mul11, i64 noundef %mul13, ptr noundef nonnull %count) #8
  %cmp15 = icmp slt i32 %call14, 0
  br i1 %cmp15, label %out1, label %if.end18

if.end18:                                         ; preds = %while.body
  %11 = load i64, ptr %count, align 8
  %rem = and i64 %11, 511
  %cmp19 = icmp eq i64 %rem, 0
  br i1 %cmp19, label %if.end22, label %if.else

if.else:                                          ; preds = %if.end18
  call void @__assert_fail(ptr noundef nonnull @.str.32, ptr noundef nonnull @.str.4, i32 noundef 287, ptr noundef nonnull @__PRETTY_FUNCTION__.replication_co_writev) #10
  unreachable

if.end22:                                         ; preds = %if.end18
  call void @qemu_iovec_reset(ptr noundef nonnull %hd_qiov) #8
  %12 = load i64, ptr %count, align 8
  call void @qemu_iovec_concat(ptr noundef nonnull %hd_qiov, ptr noundef %qiov, i64 noundef %bytes_done.033, i64 noundef %12) #8
  %tobool.not = icmp eq i32 %call14, 0
  %cond = select i1 %tobool.not, ptr %2, ptr %1
  %call25 = call i32 @bdrv_co_pwritev(ptr noundef nonnull %cond, i64 noundef %mul11, i64 noundef %11, ptr noundef nonnull %hd_qiov, i32 noundef 0) #8
  %cmp26 = icmp slt i32 %call25, 0
  br i1 %cmp26, label %out1, label %if.end29

if.end29:                                         ; preds = %if.end22
  %shr = ashr exact i64 %11, 9
  %13 = trunc i64 %shr to i32
  %conv31 = sub i32 %remaining_sectors.addr.034, %13
  %add = add i64 %shr, %sector_num.addr.035
  %14 = load i64, ptr %count, align 8
  %add32 = add i64 %14, %bytes_done.033
  %cmp7 = icmp sgt i32 %conv31, 0
  br i1 %cmp7, label %while.body, label %out1, !llvm.loop !5

out1:                                             ; preds = %while.body, %if.end22, %if.end29, %if.end6
  %ret.2 = phi i32 [ 1, %if.end6 ], [ %call25, %if.end29 ], [ %call25, %if.end22 ], [ %call14, %while.body ]
  call void @qemu_iovec_destroy(ptr noundef nonnull %hd_qiov) #8
  br label %return

return:                                           ; preds = %sw.bb2.i, %sw.bb3.i, %sw.bb7.i, %entry, %if.then2.i, %if.then2, %out1
  %retval.0 = phi i32 [ %ret.2, %out1 ], [ %call4, %if.then2 ], [ 0, %if.then2.i ], [ -5, %entry ], [ -5, %sw.bb7.i ], [ -5, %sw.bb3.i ], [ -5, %sw.bb2.i ]
  ret i32 %retval.0
}